; Function Attrs: nounwind uwtable
define noalias noundef ptr @Abc_NtkGetCiSatVarNums(ptr noundef readonly captures(none) %0) local_unnamed_addr #0 {
  %2 = getelementptr i8, ptr %0, i64 56
  %.val = load ptr, ptr %2, align 8
  %3 = getelementptr i8, ptr %.val, i64 4
  %.val.val = load i32, ptr %3, align 4
  %4 = tail call noalias dereferenceable_or_null(16) ptr @malloc(i64 noundef 16) #12
  %5 = add i32 %.val.val, -1
  %or.cond.i = icmp ult i32 %5, 15
  %spec.store.select.i = select i1 %or.cond.i, i32 16, i32 %.val.val
  %6 = getelementptr inbounds nuw i8, ptr %4, i64 4
  store i32 0, ptr %6, align 4
  store i32 %spec.store.select.i, ptr %4, align 8
  %.not.i = icmp eq i32 %spec.store.select.i, 0
  br i1 %.not.i, label %Vec_IntAlloc.exit, label %7

7:                                                ; preds = %1
  %8 = sext i32 %spec.store.select.i to i64
  %9 = shl nsw i64 %8, 2
  %10 = tail call noalias ptr @malloc(i64 noundef %9) #12
  br label %Vec_IntAlloc.exit

Vec_IntAlloc.exit:                                ; preds = %1, %7
  %11 = phi ptr [ %10, %7 ], [ null, %1 ]
  %12 = getelementptr inbounds nuw i8, ptr %4, i64 8
  store ptr %11, ptr %12, align 8
  %13 = icmp sgt i32 %.val.val, 0
  br i1 %13, label %.lr.ph, label %.critedge

.lr.ph:                                           ; preds = %Vec_IntAlloc.exit, %Vec_IntPush.exit
  %indvars.iv = phi i64 [ %indvars.iv.next, %Vec_IntPush.exit ], [ 0, %Vec_IntAlloc.exit ]
  %.val813 = phi ptr [ %.val8, %Vec_IntPush.exit ], [ %.val, %Vec_IntAlloc.exit ]
  %14 = getelementptr i8, ptr %.val813, i64 8
  %.val9.val = load ptr, ptr %14, align 8
  %15 = getelementptr inbounds nuw ptr, ptr %.val9.val, i64 %indvars.iv
  %16 = load ptr, ptr %15, align 8
  %17 = getelementptr inbounds nuw i8, ptr %16, i64 64
  %18 = load ptr, ptr %17, align 8
  %19 = ptrtoint ptr %18 to i64
  %20 = trunc i64 %19 to i32
  %21 = load i32, ptr %6, align 4
  %22 = load i32, ptr %4, align 8
  %23 = icmp eq i32 %21, %22
  br i1 %23, label %24, label %.Vec_IntGrow.exit10_crit_edge.i

.Vec_IntGrow.exit10_crit_edge.i:                  ; preds = %.lr.ph
  %.pre.i = load ptr, ptr %12, align 8
  br label %Vec_IntPush.exit

24:                                               ; preds = %.lr.ph
  %25 = icmp slt i32 %21, 16
  br i1 %25, label %26, label %33

26:                                               ; preds = %24
  %27 = load ptr, ptr %12, align 8
  %.not9.i.i = icmp eq ptr %27, null
  br i1 %.not9.i.i, label %30, label %28

28:                                               ; preds = %26
  %29 = tail call dereferenceable_or_null(64) ptr @realloc(ptr noundef nonnull %27, i64 noundef 64) #13
  br label %Vec_IntGrow.exit.i

30:                                               ; preds = %26
  %31 = tail call noalias dereferenceable_or_null(64) ptr @malloc(i64 noundef 64) #12
  br label %Vec_IntGrow.exit.i

Vec_IntGrow.exit.i:                               ; preds = %30, %28
  %32 = phi ptr [ %29, %28 ], [ %31, %30 ]
  store ptr %32, ptr %12, align 8
  store i32 16, ptr %4, align 8
  br label %Vec_IntPush.exit

33:                                               ; preds = %24
  %34 = shl nuw nsw i32 %21, 1
  %35 = load ptr, ptr %12, align 8
  %.not9.i9.i = icmp eq ptr %35, null
  %36 = zext nneg i32 %34 to i64
  %37 = shl nuw nsw i64 %36, 2
  br i1 %.not9.i9.i, label %40, label %38

38:                                               ; preds = %33
  %39 = tail call ptr @realloc(ptr noundef nonnull %35, i64 noundef %37) #13
  br label %42

40:                                               ; preds = %33
  %41 = tail call noalias ptr @malloc(i64 noundef %37) #12
  br label %42

42:                                               ; preds = %40, %38
  %43 = phi ptr [ %39, %38 ], [ %41, %40 ]
  store ptr %43, ptr %12, align 8
  store i32 %34, ptr %4, align 8
  br label %Vec_IntPush.exit

Vec_IntPush.exit:                                 ; preds = %.Vec_IntGrow.exit10_crit_edge.i, %Vec_IntGrow.exit.i, %42
  %44 = phi ptr [ %.pre.i, %.Vec_IntGrow.exit10_crit_edge.i ], [ %43, %42 ], [ %32, %Vec_IntGrow.exit.i ]
  %45 = add nsw i32 %21, 1
  store i32 %45, ptr %6, align 4
  %46 = sext i32 %21 to i64
  %47 = getelementptr inbounds i32, ptr %44, i64 %46
  store i32 %20, ptr %47, align 4
  %indvars.iv.next = add nuw nsw i64 %indvars.iv, 1
  %.val8 = load ptr, ptr %2, align 8
  %48 = getelementptr i8, ptr %.val8, i64 4
  %.val8.val = load i32, ptr %48, align 4
  %49 = sext i32 %.val8.val to i64
  %50 = icmp slt i64 %indvars.iv.next, %49
  br i1 %50, label %.lr.ph, label %.critedge, !llvm.loop !9

.critedge:                                        ; preds = %Vec_IntPush.exit, %Vec_IntAlloc.exit
  ret ptr %4
}